target datalayout = "e-m:e-p270:32:32-p271:32:32-p272:64:64-i64:64-i128:128-f80:128-n8:16:32:64-S128"
target triple = "x86_64-pc-linux-gnu"

%class.AbsSeq = type { ptr, i32, double, double, double, double, double }

@g_assert_poison = external global ptr, align 8
@.str = private unnamed_addr constant [42 x i8] c"src/hotspot/share/utilities/numberSeq.cpp\00", align 1
@.str.6 = private unnamed_addr constant [48 x i8] c"guarantee(-0.1 < result && result < 0.0) failed\00", align 1
@.str.7 = private unnamed_addr constant [49 x i8] c"if variance is negative, it should be very small\00", align 1

; Function Attrs: mustprogress nounwind uwtable
define hidden noundef double @_ZNK6AbsSeq9dvarianceEv(ptr noundef nonnull align 8 dereferenceable(56) %0) #1 align 2 {
  %2 = alloca double, align 8
  %3 = alloca ptr, align 8
  %4 = alloca double, align 8
  store ptr %0, ptr %3, align 8
  %5 = load ptr, ptr %3, align 8
  %6 = getelementptr inbounds %class.AbsSeq, ptr %5, i32 0, i32 1
  %7 = load i32, ptr %6, align 8
  %8 = icmp sle i32 %7, 1
  br i1 %8, label %9, label %10

9:                                                ; preds = %1
  store double 0.000000e+00, ptr %2, align 8
  br label %28

10:                                               ; preds = %1
  %11 = getelementptr inbounds %class.AbsSeq, ptr %5, i32 0, i32 5
  %12 = load double, ptr %11, align 8
  store double %12, ptr %4, align 8
  %13 = load double, ptr %4, align 8
  %14 = fcmp olt double %13, 0.000000e+00
  br i1 %14, label %15, label %26

15:                                               ; preds = %10
  br label %16

16:                                               ; preds = %15
  %17 = load double, ptr %4, align 8
  %18 = fcmp olt double -1.000000e-01, %17
  br i1 %18, label %19, label %22

19:                                               ; preds = %16
  %20 = load double, ptr %4, align 8
  %21 = fcmp olt double %20, 0.000000e+00
  br i1 %21, label %24, label %22

22:                                               ; preds = %19, %16
  %23 = load ptr, ptr @g_assert_poison, align 8
  store i8 88, ptr %23, align 1
  call void (ptr, i32, ptr, ptr, ...) @_Z15report_vm_errorPKciS0_S0_z(ptr noundef @.str, i32 noundef 101, ptr noundef @.str.6, ptr noundef @.str.7) #6
  unreachable

24:                                               ; preds = %19
  br label %25

25:                                               ; preds = %24
  store double 0.000000e+00, ptr %4, align 8
  br label %26

26:                                               ; preds = %25, %10
  %27 = load double, ptr %4, align 8
  store double %27, ptr %2, align 8
  br label %28

28:                                               ; preds = %26, %9
  %29 = load double, ptr %2, align 8
  ret double %29
}