; Function Attrs: mustprogress nounwind uwtable
define hidden noundef double @_ZNK6AbsSeq9dvarianceEv(ptr nocapture noundef nonnull readonly align 8 dereferenceable(56) %0) local_unnamed_addr #3 align 2 {
  %2 = getelementptr inbounds i8, ptr %0, i64 8
  %3 = load i32, ptr %2, align 8
  %4 = icmp slt i32 %3, 2
  br i1 %4, label %13, label %5

5:                                                ; preds = %1
  %6 = getelementptr inbounds i8, ptr %0, i64 40
  %7 = load double, ptr %6, align 8
  %8 = fcmp olt double %7, 0.000000e+00
  br i1 %8, label %9, label %13

9:                                                ; preds = %5
  %10 = fcmp ogt double %7, -1.000000e-01
  br i1 %10, label %13, label %11

11:                                               ; preds = %9
  %12 = load ptr, ptr @g_assert_poison, align 8
  store i8 88, ptr %12, align 1
  tail call void (ptr, i32, ptr, ptr, ...) @_Z15report_vm_errorPKciS0_S0_z(ptr noundef nonnull @.str, i32 noundef 101, ptr noundef nonnull @.str.6, ptr noundef nonnull @.str.7) #13
  unreachable

13:                                               ; preds = %5, %9, %1
  %.07 = phi double [ 0.000000e+00, %1 ], [ %7, %5 ], [ 0.000000e+00, %9 ]
  ret double %.07
}